target datalayout = "e-m:e-p270:32:32-p271:32:32-p272:64:64-i64:64-i128:128-f80:128-n8:16:32:64-S128"
target triple = "x86_64-pc-linux-gnu"

@routeinit = internal global i32 0, align 4
@nedges = internal global i32 0, align 4
@nboxes = internal global i64 0, align 8
@Verbose = external global i8, align 1

; Function Attrs: nounwind uwtable
define i32 @routesplinesinit() #0 {
  %1 = alloca i32, align 4
  %2 = load i32, ptr @routeinit, align 4, !tbaa !8
  %3 = add nsw i32 %2, 1
  store i32 %3, ptr @routeinit, align 4, !tbaa !8
  %4 = icmp sgt i32 %3, 1
  br i1 %4, label %5, label %6

5:                                                ; preds = %0
  store i32 0, ptr %1, align 4
  br label %11

6:                                                ; preds = %0
  store i32 0, ptr @nedges, align 4, !tbaa !8
  store i64 0, ptr @nboxes, align 8, !tbaa !20
  %7 = load i8, ptr @Verbose, align 1, !tbaa !31
  %8 = icmp ne i8 %7, 0
  br i1 %8, label %9, label %10

9:                                                ; preds = %6
  call void @start_timer()
  br label %10

10:                                               ; preds = %9, %6
  store i32 0, ptr %1, align 4
  br label %11

11:                                               ; preds = %10, %5
  %12 = load i32, ptr %1, align 4
  ret i32 %12
}