; Function Attrs: nounwind uwtable
define noundef i32 @routesplinesinit() local_unnamed_addr #0 {
  %1 = load i32, ptr @routeinit, align 4, !tbaa !22
  %2 = add nsw i32 %1, 1
  store i32 %2, ptr @routeinit, align 4, !tbaa !22
  %3 = icmp sgt i32 %1, 0
  br i1 %3, label %7, label %4

4:                                                ; preds = %0
  store i32 0, ptr @nedges, align 4, !tbaa !22
  store i64 0, ptr @nboxes, align 8, !tbaa !21
  %5 = load i8, ptr @Verbose, align 1, !tbaa !24
  %.not = icmp eq i8 %5, 0
  br i1 %.not, label %7, label %6

6:                                                ; preds = %4
  tail call void @start_timer() #19
  br label %7

7:                                                ; preds = %4, %6, %0
  ret i32 0
}